
rv32udzfinx-p-fmin:     file format elf32-littleriscv


Disassembly of section .text.init:

80000000 <_start>:
80000000:	04c0006f          	j	8000004c <reset_vector>

80000004 <trap_vector>:
80000004:	34202f73          	csrr	t5,mcause
80000008:	00800f93          	li	t6,8
8000000c:	03ff0a63          	beq	t5,t6,80000040 <write_tohost>
80000010:	00900f93          	li	t6,9
80000014:	03ff0663          	beq	t5,t6,80000040 <write_tohost>
80000018:	00b00f93          	li	t6,11
8000001c:	03ff0263          	beq	t5,t6,80000040 <write_tohost>
80000020:	80000f17          	auipc	t5,0x80000
80000024:	fe0f0f13          	addi	t5,t5,-32 # 0 <_start-0x80000000>
80000028:	000f0463          	beqz	t5,80000030 <trap_vector+0x2c>
8000002c:	000f0067          	jr	t5
80000030:	34202f73          	csrr	t5,mcause
80000034:	000f5463          	bgez	t5,8000003c <handle_exception>
80000038:	0040006f          	j	8000003c <handle_exception>

8000003c <handle_exception>:
8000003c:	5391e193          	ori	gp,gp,1337

80000040 <write_tohost>:
80000040:	00001f17          	auipc	t5,0x1
80000044:	fc3f2023          	sw	gp,-64(t5) # 80001000 <tohost>
80000048:	ff9ff06f          	j	80000040 <write_tohost>

8000004c <reset_vector>:
8000004c:	00000093          	li	ra,0
80000050:	00000113          	li	sp,0
80000054:	00000193          	li	gp,0
80000058:	00000213          	li	tp,0
8000005c:	00000293          	li	t0,0
80000060:	00000313          	li	t1,0
80000064:	00000393          	li	t2,0
80000068:	00000413          	li	s0,0
8000006c:	00000493          	li	s1,0
80000070:	00000513          	li	a0,0
80000074:	00000593          	li	a1,0
80000078:	00000613          	li	a2,0
8000007c:	00000693          	li	a3,0
80000080:	00000713          	li	a4,0
80000084:	00000793          	li	a5,0
80000088:	00000813          	li	a6,0
8000008c:	00000893          	li	a7,0
80000090:	00000913          	li	s2,0
80000094:	00000993          	li	s3,0
80000098:	00000a13          	li	s4,0
8000009c:	00000a93          	li	s5,0
800000a0:	00000b13          	li	s6,0
800000a4:	00000b93          	li	s7,0
800000a8:	00000c13          	li	s8,0
800000ac:	00000c93          	li	s9,0
800000b0:	00000d13          	li	s10,0
800000b4:	00000d93          	li	s11,0
800000b8:	00000e13          	li	t3,0
800000bc:	00000e93          	li	t4,0
800000c0:	00000f13          	li	t5,0
800000c4:	00000f93          	li	t6,0
800000c8:	f1402573          	csrr	a0,mhartid
800000cc:	00051063          	bnez	a0,800000cc <reset_vector+0x80>
800000d0:	00000297          	auipc	t0,0x0
800000d4:	01028293          	addi	t0,t0,16 # 800000e0 <reset_vector+0x94>
800000d8:	30529073          	csrw	mtvec,t0
800000dc:	18005073          	csrwi	satp,0
800000e0:	00000297          	auipc	t0,0x0
800000e4:	02028293          	addi	t0,t0,32 # 80000100 <reset_vector+0xb4>
800000e8:	30529073          	csrw	mtvec,t0
800000ec:	800002b7          	lui	t0,0x80000
800000f0:	fff28293          	addi	t0,t0,-1 # 7fffffff <_end+0xffffddbf>
800000f4:	3b029073          	csrw	pmpaddr0,t0
800000f8:	01f00293          	li	t0,31
800000fc:	3a029073          	csrw	pmpcfg0,t0
80000100:	00000297          	auipc	t0,0x0
80000104:	01828293          	addi	t0,t0,24 # 80000118 <reset_vector+0xcc>
80000108:	30529073          	csrw	mtvec,t0
8000010c:	30205073          	csrwi	medeleg,0
80000110:	30305073          	csrwi	mideleg,0
80000114:	30405073          	csrwi	mie,0
80000118:	00000193          	li	gp,0
8000011c:	00000297          	auipc	t0,0x0
80000120:	ee828293          	addi	t0,t0,-280 # 80000004 <trap_vector>
80000124:	30529073          	csrw	mtvec,t0
80000128:	00100513          	li	a0,1
8000012c:	01f51513          	slli	a0,a0,0x1f
80000130:	00054c63          	bltz	a0,80000148 <reset_vector+0xfc>
80000134:	0ff0000f          	fence
80000138:	00100193          	li	gp,1
8000013c:	05d00893          	li	a7,93
80000140:	00000513          	li	a0,0
80000144:	00000073          	ecall
80000148:	80000297          	auipc	t0,0x80000
8000014c:	eb828293          	addi	t0,t0,-328 # 0 <_start-0x80000000>
80000150:	00028a63          	beqz	t0,80000164 <reset_vector+0x118>
80000154:	10529073          	csrw	stvec,t0
80000158:	0000b2b7          	lui	t0,0xb
8000015c:	10928293          	addi	t0,t0,265 # b109 <_start-0x7fff4ef7>
80000160:	30229073          	csrw	medeleg,t0
80000164:	30005073          	csrwi	mstatus,0
80000168:	00002537          	lui	a0,0x2
8000016c:	30052073          	csrs	mstatus,a0
80000170:	00305073          	csrwi	fcsr,0
80000174:	00000297          	auipc	t0,0x0
80000178:	01428293          	addi	t0,t0,20 # 80000188 <test_2>
8000017c:	34129073          	csrw	mepc,t0
80000180:	f1402573          	csrr	a0,mhartid
80000184:	30200073          	mret

80000188 <test_2>:
80000188:	00200193          	li	gp,2
8000018c:	00002517          	auipc	a0,0x2
80000190:	e7450513          	addi	a0,a0,-396 # 80002000 <test_2_data>
80000194:	00052203          	lw	tp,0(a0)
80000198:	00452283          	lw	t0,4(a0)
8000019c:	00852303          	lw	t1,8(a0)
800001a0:	00c52383          	lw	t2,12(a0)
800001a4:	01052403          	lw	s0,16(a0)
800001a8:	01452483          	lw	s1,20(a0)
800001ac:	01852e03          	lw	t3,24(a0)
800001b0:	01c52e83          	lw	t4,28(a0)
800001b4:	2a620953          	fmin.d	fs2,ft4,ft6
800001b8:	013003b3          	add	t2,zero,s3
800001bc:	01200533          	add	a0,zero,s2
800001c0:	001015f3          	fsflags	a1,zero
800001c4:	00000613          	li	a2,0
800001c8:	51c51e63          	bne	a0,t3,800006e4 <fail>
800001cc:	507e9c63          	bne	t4,t2,800006e4 <fail>
800001d0:	50c59a63          	bne	a1,a2,800006e4 <fail>

800001d4 <test_3>:
800001d4:	00300193          	li	gp,3
800001d8:	00002517          	auipc	a0,0x2
800001dc:	e4850513          	addi	a0,a0,-440 # 80002020 <test_3_data>
800001e0:	00052203          	lw	tp,0(a0)
800001e4:	00452283          	lw	t0,4(a0)
800001e8:	00852303          	lw	t1,8(a0)
800001ec:	00c52383          	lw	t2,12(a0)
800001f0:	01052403          	lw	s0,16(a0)
800001f4:	01452483          	lw	s1,20(a0)
800001f8:	01852e03          	lw	t3,24(a0)
800001fc:	01c52e83          	lw	t4,28(a0)
80000200:	2a620953          	fmin.d	fs2,ft4,ft6
80000204:	013003b3          	add	t2,zero,s3
80000208:	01200533          	add	a0,zero,s2
8000020c:	001015f3          	fsflags	a1,zero
80000210:	00000613          	li	a2,0
80000214:	4dc51863          	bne	a0,t3,800006e4 <fail>
80000218:	4c7e9663          	bne	t4,t2,800006e4 <fail>
8000021c:	4cc59463          	bne	a1,a2,800006e4 <fail>

80000220 <test_4>:
80000220:	00400193          	li	gp,4
80000224:	00002517          	auipc	a0,0x2
80000228:	e1c50513          	addi	a0,a0,-484 # 80002040 <test_4_data>
8000022c:	00052203          	lw	tp,0(a0)
80000230:	00452283          	lw	t0,4(a0)
80000234:	00852303          	lw	t1,8(a0)
80000238:	00c52383          	lw	t2,12(a0)
8000023c:	01052403          	lw	s0,16(a0)
80000240:	01452483          	lw	s1,20(a0)
80000244:	01852e03          	lw	t3,24(a0)
80000248:	01c52e83          	lw	t4,28(a0)
8000024c:	2a620953          	fmin.d	fs2,ft4,ft6
80000250:	013003b3          	add	t2,zero,s3
80000254:	01200533          	add	a0,zero,s2
80000258:	001015f3          	fsflags	a1,zero
8000025c:	00000613          	li	a2,0
80000260:	49c51263          	bne	a0,t3,800006e4 <fail>
80000264:	487e9063          	bne	t4,t2,800006e4 <fail>
80000268:	46c59e63          	bne	a1,a2,800006e4 <fail>

8000026c <test_5>:
8000026c:	00500193          	li	gp,5
80000270:	00002517          	auipc	a0,0x2
80000274:	df050513          	addi	a0,a0,-528 # 80002060 <test_5_data>
80000278:	00052203          	lw	tp,0(a0)
8000027c:	00452283          	lw	t0,4(a0)
80000280:	00852303          	lw	t1,8(a0)
80000284:	00c52383          	lw	t2,12(a0)
80000288:	01052403          	lw	s0,16(a0)
8000028c:	01452483          	lw	s1,20(a0)
80000290:	01852e03          	lw	t3,24(a0)
80000294:	01c52e83          	lw	t4,28(a0)
80000298:	2a620953          	fmin.d	fs2,ft4,ft6
8000029c:	013003b3          	add	t2,zero,s3
800002a0:	01200533          	add	a0,zero,s2
800002a4:	001015f3          	fsflags	a1,zero
800002a8:	00000613          	li	a2,0
800002ac:	43c51c63          	bne	a0,t3,800006e4 <fail>
800002b0:	427e9a63          	bne	t4,t2,800006e4 <fail>
800002b4:	42c59863          	bne	a1,a2,800006e4 <fail>

800002b8 <test_6>:
800002b8:	00600193          	li	gp,6
800002bc:	00002517          	auipc	a0,0x2
800002c0:	dc450513          	addi	a0,a0,-572 # 80002080 <test_6_data>
800002c4:	00052203          	lw	tp,0(a0)
800002c8:	00452283          	lw	t0,4(a0)
800002cc:	00852303          	lw	t1,8(a0)
800002d0:	00c52383          	lw	t2,12(a0)
800002d4:	01052403          	lw	s0,16(a0)
800002d8:	01452483          	lw	s1,20(a0)
800002dc:	01852e03          	lw	t3,24(a0)
800002e0:	01c52e83          	lw	t4,28(a0)
800002e4:	2a620953          	fmin.d	fs2,ft4,ft6
800002e8:	013003b3          	add	t2,zero,s3
800002ec:	01200533          	add	a0,zero,s2
800002f0:	001015f3          	fsflags	a1,zero
800002f4:	00000613          	li	a2,0
800002f8:	3fc51663          	bne	a0,t3,800006e4 <fail>
800002fc:	3e7e9463          	bne	t4,t2,800006e4 <fail>
80000300:	3ec59263          	bne	a1,a2,800006e4 <fail>

80000304 <test_7>:
80000304:	00700193          	li	gp,7
80000308:	00002517          	auipc	a0,0x2
8000030c:	d9850513          	addi	a0,a0,-616 # 800020a0 <test_7_data>
80000310:	00052203          	lw	tp,0(a0)
80000314:	00452283          	lw	t0,4(a0)
80000318:	00852303          	lw	t1,8(a0)
8000031c:	00c52383          	lw	t2,12(a0)
80000320:	01052403          	lw	s0,16(a0)
80000324:	01452483          	lw	s1,20(a0)
80000328:	01852e03          	lw	t3,24(a0)
8000032c:	01c52e83          	lw	t4,28(a0)
80000330:	2a620953          	fmin.d	fs2,ft4,ft6
80000334:	013003b3          	add	t2,zero,s3
80000338:	01200533          	add	a0,zero,s2
8000033c:	001015f3          	fsflags	a1,zero
80000340:	00000613          	li	a2,0
80000344:	3bc51063          	bne	a0,t3,800006e4 <fail>
80000348:	387e9e63          	bne	t4,t2,800006e4 <fail>
8000034c:	38c59c63          	bne	a1,a2,800006e4 <fail>

80000350 <test_12>:
80000350:	00c00193          	li	gp,12
80000354:	00002517          	auipc	a0,0x2
80000358:	d6c50513          	addi	a0,a0,-660 # 800020c0 <test_12_data>
8000035c:	00052203          	lw	tp,0(a0)
80000360:	00452283          	lw	t0,4(a0)
80000364:	00852303          	lw	t1,8(a0)
80000368:	00c52383          	lw	t2,12(a0)
8000036c:	01052403          	lw	s0,16(a0)
80000370:	01452483          	lw	s1,20(a0)
80000374:	01852e03          	lw	t3,24(a0)
80000378:	01c52e83          	lw	t4,28(a0)
8000037c:	2a621953          	fmax.d	fs2,ft4,ft6
80000380:	013003b3          	add	t2,zero,s3
80000384:	01200533          	add	a0,zero,s2
80000388:	001015f3          	fsflags	a1,zero
8000038c:	00000613          	li	a2,0
80000390:	35c51a63          	bne	a0,t3,800006e4 <fail>
80000394:	347e9863          	bne	t4,t2,800006e4 <fail>
80000398:	34c59663          	bne	a1,a2,800006e4 <fail>

8000039c <test_13>:
8000039c:	00d00193          	li	gp,13
800003a0:	00002517          	auipc	a0,0x2
800003a4:	d4050513          	addi	a0,a0,-704 # 800020e0 <test_13_data>
800003a8:	00052203          	lw	tp,0(a0)
800003ac:	00452283          	lw	t0,4(a0)
800003b0:	00852303          	lw	t1,8(a0)
800003b4:	00c52383          	lw	t2,12(a0)
800003b8:	01052403          	lw	s0,16(a0)
800003bc:	01452483          	lw	s1,20(a0)
800003c0:	01852e03          	lw	t3,24(a0)
800003c4:	01c52e83          	lw	t4,28(a0)
800003c8:	2a621953          	fmax.d	fs2,ft4,ft6
800003cc:	013003b3          	add	t2,zero,s3
800003d0:	01200533          	add	a0,zero,s2
800003d4:	001015f3          	fsflags	a1,zero
800003d8:	00000613          	li	a2,0
800003dc:	31c51463          	bne	a0,t3,800006e4 <fail>
800003e0:	307e9263          	bne	t4,t2,800006e4 <fail>
800003e4:	30c59063          	bne	a1,a2,800006e4 <fail>

800003e8 <test_14>:
800003e8:	00e00193          	li	gp,14
800003ec:	00002517          	auipc	a0,0x2
800003f0:	d1450513          	addi	a0,a0,-748 # 80002100 <test_14_data>
800003f4:	00052203          	lw	tp,0(a0)
800003f8:	00452283          	lw	t0,4(a0)
800003fc:	00852303          	lw	t1,8(a0)
80000400:	00c52383          	lw	t2,12(a0)
80000404:	01052403          	lw	s0,16(a0)
80000408:	01452483          	lw	s1,20(a0)
8000040c:	01852e03          	lw	t3,24(a0)
80000410:	01c52e83          	lw	t4,28(a0)
80000414:	2a621953          	fmax.d	fs2,ft4,ft6
80000418:	013003b3          	add	t2,zero,s3
8000041c:	01200533          	add	a0,zero,s2
80000420:	001015f3          	fsflags	a1,zero
80000424:	00000613          	li	a2,0
80000428:	2bc51e63          	bne	a0,t3,800006e4 <fail>
8000042c:	2a7e9c63          	bne	t4,t2,800006e4 <fail>
80000430:	2ac59a63          	bne	a1,a2,800006e4 <fail>

80000434 <test_15>:
80000434:	00f00193          	li	gp,15
80000438:	00002517          	auipc	a0,0x2
8000043c:	ce850513          	addi	a0,a0,-792 # 80002120 <test_15_data>
80000440:	00052203          	lw	tp,0(a0)
80000444:	00452283          	lw	t0,4(a0)
80000448:	00852303          	lw	t1,8(a0)
8000044c:	00c52383          	lw	t2,12(a0)
80000450:	01052403          	lw	s0,16(a0)
80000454:	01452483          	lw	s1,20(a0)
80000458:	01852e03          	lw	t3,24(a0)
8000045c:	01c52e83          	lw	t4,28(a0)
80000460:	2a621953          	fmax.d	fs2,ft4,ft6
80000464:	013003b3          	add	t2,zero,s3
80000468:	01200533          	add	a0,zero,s2
8000046c:	001015f3          	fsflags	a1,zero
80000470:	00000613          	li	a2,0
80000474:	27c51863          	bne	a0,t3,800006e4 <fail>
80000478:	267e9663          	bne	t4,t2,800006e4 <fail>
8000047c:	26c59463          	bne	a1,a2,800006e4 <fail>

80000480 <test_16>:
80000480:	01000193          	li	gp,16
80000484:	00002517          	auipc	a0,0x2
80000488:	cbc50513          	addi	a0,a0,-836 # 80002140 <test_16_data>
8000048c:	00052203          	lw	tp,0(a0)
80000490:	00452283          	lw	t0,4(a0)
80000494:	00852303          	lw	t1,8(a0)
80000498:	00c52383          	lw	t2,12(a0)
8000049c:	01052403          	lw	s0,16(a0)
800004a0:	01452483          	lw	s1,20(a0)
800004a4:	01852e03          	lw	t3,24(a0)
800004a8:	01c52e83          	lw	t4,28(a0)
800004ac:	2a621953          	fmax.d	fs2,ft4,ft6
800004b0:	013003b3          	add	t2,zero,s3
800004b4:	01200533          	add	a0,zero,s2
800004b8:	001015f3          	fsflags	a1,zero
800004bc:	00000613          	li	a2,0
800004c0:	23c51263          	bne	a0,t3,800006e4 <fail>
800004c4:	227e9063          	bne	t4,t2,800006e4 <fail>
800004c8:	20c59e63          	bne	a1,a2,800006e4 <fail>

800004cc <test_17>:
800004cc:	01100193          	li	gp,17
800004d0:	00002517          	auipc	a0,0x2
800004d4:	c9050513          	addi	a0,a0,-880 # 80002160 <test_17_data>
800004d8:	00052203          	lw	tp,0(a0)
800004dc:	00452283          	lw	t0,4(a0)
800004e0:	00852303          	lw	t1,8(a0)
800004e4:	00c52383          	lw	t2,12(a0)
800004e8:	01052403          	lw	s0,16(a0)
800004ec:	01452483          	lw	s1,20(a0)
800004f0:	01852e03          	lw	t3,24(a0)
800004f4:	01c52e83          	lw	t4,28(a0)
800004f8:	2a621953          	fmax.d	fs2,ft4,ft6
800004fc:	013003b3          	add	t2,zero,s3
80000500:	01200533          	add	a0,zero,s2
80000504:	001015f3          	fsflags	a1,zero
80000508:	00000613          	li	a2,0
8000050c:	1dc51c63          	bne	a0,t3,800006e4 <fail>
80000510:	1c7e9a63          	bne	t4,t2,800006e4 <fail>
80000514:	1cc59863          	bne	a1,a2,800006e4 <fail>

80000518 <test_20>:
80000518:	01400193          	li	gp,20
8000051c:	00002517          	auipc	a0,0x2
80000520:	c6450513          	addi	a0,a0,-924 # 80002180 <test_20_data>
80000524:	00052203          	lw	tp,0(a0)
80000528:	00452283          	lw	t0,4(a0)
8000052c:	00852303          	lw	t1,8(a0)
80000530:	00c52383          	lw	t2,12(a0)
80000534:	01052403          	lw	s0,16(a0)
80000538:	01452483          	lw	s1,20(a0)
8000053c:	01852e03          	lw	t3,24(a0)
80000540:	01c52e83          	lw	t4,28(a0)
80000544:	2a621953          	fmax.d	fs2,ft4,ft6
80000548:	013003b3          	add	t2,zero,s3
8000054c:	01200533          	add	a0,zero,s2
80000550:	001015f3          	fsflags	a1,zero
80000554:	01000613          	li	a2,16
80000558:	19c51663          	bne	a0,t3,800006e4 <fail>
8000055c:	187e9463          	bne	t4,t2,800006e4 <fail>
80000560:	18c59263          	bne	a1,a2,800006e4 <fail>

80000564 <test_21>:
80000564:	01500193          	li	gp,21
80000568:	00002517          	auipc	a0,0x2
8000056c:	c3850513          	addi	a0,a0,-968 # 800021a0 <test_21_data>
80000570:	00052203          	lw	tp,0(a0)
80000574:	00452283          	lw	t0,4(a0)
80000578:	00852303          	lw	t1,8(a0)
8000057c:	00c52383          	lw	t2,12(a0)
80000580:	01052403          	lw	s0,16(a0)
80000584:	01452483          	lw	s1,20(a0)
80000588:	01852e03          	lw	t3,24(a0)
8000058c:	01c52e83          	lw	t4,28(a0)
80000590:	2a621953          	fmax.d	fs2,ft4,ft6
80000594:	013003b3          	add	t2,zero,s3
80000598:	01200533          	add	a0,zero,s2
8000059c:	001015f3          	fsflags	a1,zero
800005a0:	00000613          	li	a2,0
800005a4:	15c51063          	bne	a0,t3,800006e4 <fail>
800005a8:	127e9e63          	bne	t4,t2,800006e4 <fail>
800005ac:	12c59c63          	bne	a1,a2,800006e4 <fail>

800005b0 <test_30>:
800005b0:	01e00193          	li	gp,30
800005b4:	00002517          	auipc	a0,0x2
800005b8:	c0c50513          	addi	a0,a0,-1012 # 800021c0 <test_30_data>
800005bc:	00052203          	lw	tp,0(a0)
800005c0:	00452283          	lw	t0,4(a0)
800005c4:	00852303          	lw	t1,8(a0)
800005c8:	00c52383          	lw	t2,12(a0)
800005cc:	01052403          	lw	s0,16(a0)
800005d0:	01452483          	lw	s1,20(a0)
800005d4:	01852e03          	lw	t3,24(a0)
800005d8:	01c52e83          	lw	t4,28(a0)
800005dc:	2a620953          	fmin.d	fs2,ft4,ft6
800005e0:	013003b3          	add	t2,zero,s3
800005e4:	01200533          	add	a0,zero,s2
800005e8:	001015f3          	fsflags	a1,zero
800005ec:	00000613          	li	a2,0
800005f0:	0fc51a63          	bne	a0,t3,800006e4 <fail>
800005f4:	0e7e9863          	bne	t4,t2,800006e4 <fail>
800005f8:	0ec59663          	bne	a1,a2,800006e4 <fail>

800005fc <test_31>:
800005fc:	01f00193          	li	gp,31
80000600:	00002517          	auipc	a0,0x2
80000604:	be050513          	addi	a0,a0,-1056 # 800021e0 <test_31_data>
80000608:	00052203          	lw	tp,0(a0)
8000060c:	00452283          	lw	t0,4(a0)
80000610:	00852303          	lw	t1,8(a0)
80000614:	00c52383          	lw	t2,12(a0)
80000618:	01052403          	lw	s0,16(a0)
8000061c:	01452483          	lw	s1,20(a0)
80000620:	01852e03          	lw	t3,24(a0)
80000624:	01c52e83          	lw	t4,28(a0)
80000628:	2a620953          	fmin.d	fs2,ft4,ft6
8000062c:	013003b3          	add	t2,zero,s3
80000630:	01200533          	add	a0,zero,s2
80000634:	001015f3          	fsflags	a1,zero
80000638:	00000613          	li	a2,0
8000063c:	0bc51463          	bne	a0,t3,800006e4 <fail>
80000640:	0a7e9263          	bne	t4,t2,800006e4 <fail>
80000644:	0ac59063          	bne	a1,a2,800006e4 <fail>

80000648 <test_32>:
80000648:	02000193          	li	gp,32
8000064c:	00002517          	auipc	a0,0x2
80000650:	bb450513          	addi	a0,a0,-1100 # 80002200 <test_32_data>
80000654:	00052203          	lw	tp,0(a0)
80000658:	00452283          	lw	t0,4(a0)
8000065c:	00852303          	lw	t1,8(a0)
80000660:	00c52383          	lw	t2,12(a0)
80000664:	01052403          	lw	s0,16(a0)
80000668:	01452483          	lw	s1,20(a0)
8000066c:	01852e03          	lw	t3,24(a0)
80000670:	01c52e83          	lw	t4,28(a0)
80000674:	2a621953          	fmax.d	fs2,ft4,ft6
80000678:	013003b3          	add	t2,zero,s3
8000067c:	01200533          	add	a0,zero,s2
80000680:	001015f3          	fsflags	a1,zero
80000684:	00000613          	li	a2,0
80000688:	05c51e63          	bne	a0,t3,800006e4 <fail>
8000068c:	047e9c63          	bne	t4,t2,800006e4 <fail>
80000690:	04c59a63          	bne	a1,a2,800006e4 <fail>

80000694 <test_33>:
80000694:	02100193          	li	gp,33
80000698:	00002517          	auipc	a0,0x2
8000069c:	b8850513          	addi	a0,a0,-1144 # 80002220 <test_33_data>
800006a0:	00052203          	lw	tp,0(a0)
800006a4:	00452283          	lw	t0,4(a0)
800006a8:	00852303          	lw	t1,8(a0)
800006ac:	00c52383          	lw	t2,12(a0)
800006b0:	01052403          	lw	s0,16(a0)
800006b4:	01452483          	lw	s1,20(a0)
800006b8:	01852e03          	lw	t3,24(a0)
800006bc:	01c52e83          	lw	t4,28(a0)
800006c0:	2a621953          	fmax.d	fs2,ft4,ft6
800006c4:	013003b3          	add	t2,zero,s3
800006c8:	01200533          	add	a0,zero,s2
800006cc:	001015f3          	fsflags	a1,zero
800006d0:	00000613          	li	a2,0
800006d4:	01c51863          	bne	a0,t3,800006e4 <fail>
800006d8:	007e9663          	bne	t4,t2,800006e4 <fail>
800006dc:	00c59463          	bne	a1,a2,800006e4 <fail>
800006e0:	02301063          	bne	zero,gp,80000700 <pass>

800006e4 <fail>:
800006e4:	0ff0000f          	fence
800006e8:	00018063          	beqz	gp,800006e8 <fail+0x4>
800006ec:	00119193          	slli	gp,gp,0x1
800006f0:	0011e193          	ori	gp,gp,1
800006f4:	05d00893          	li	a7,93
800006f8:	00018513          	mv	a0,gp
800006fc:	00000073          	ecall

80000700 <pass>:
80000700:	0ff0000f          	fence
80000704:	00100193          	li	gp,1
80000708:	05d00893          	li	a7,93
8000070c:	00000513          	li	a0,0
80000710:	00000073          	ecall
80000714:	c0001073          	unimp
80000718:	0000                	unimp
8000071a:	0000                	unimp
8000071c:	0000                	unimp
8000071e:	0000                	unimp
80000720:	0000                	unimp
80000722:	0000                	unimp
80000724:	0000                	unimp
80000726:	0000                	unimp
80000728:	0000                	unimp
8000072a:	0000                	unimp
8000072c:	0000                	unimp
8000072e:	0000                	unimp
80000730:	0000                	unimp
80000732:	0000                	unimp
80000734:	0000                	unimp
80000736:	0000                	unimp
80000738:	0000                	unimp
8000073a:	0000                	unimp
8000073c:	0000                	unimp
8000073e:	0000                	unimp
80000740:	0000                	unimp
80000742:	0000                	unimp

Disassembly of section .data:

80002000 <test_2_data>:
80002000:	0000                	unimp
80002002:	0000                	unimp
80002004:	0000                	unimp
80002006:	4004                	lw	s1,0(s0)
80002008:	0000                	unimp
8000200a:	0000                	unimp
8000200c:	0000                	unimp
8000200e:	3ff0                	lbu	a2,31(a5)
80002010:	0000                	unimp
80002012:	0000                	unimp
80002014:	0000                	unimp
80002016:	0000                	unimp
80002018:	0000                	unimp
8000201a:	0000                	unimp
8000201c:	0000                	unimp
8000201e:	3ff0                	lbu	a2,31(a5)

80002020 <test_3_data>:
80002020:	6666                	flw	fa2,88(sp)
80002022:	6666                	flw	fa2,88(sp)
80002024:	4c66                	lw	s8,88(sp)
80002026:	999ac093          	xori	ra,s5,-1639
8000202a:	9999                	andi	a1,a1,-26
8000202c:	9999                	andi	a1,a1,-26
8000202e:	3ff1                	jal	8000200a <test_2_data+0xa>
80002030:	0000                	unimp
80002032:	0000                	unimp
80002034:	0000                	unimp
80002036:	0000                	unimp
80002038:	6666                	flw	fa2,88(sp)
8000203a:	6666                	flw	fa2,88(sp)
8000203c:	4c66                	lw	s8,88(sp)
8000203e:	          	xori	ra,s5,-1639

80002040 <test_4_data>:
80002040:	999a                	add	s3,s3,t1
80002042:	9999                	andi	a1,a1,-26
80002044:	9999                	andi	a1,a1,-26
80002046:	3ff1                	jal	80002022 <test_3_data+0x2>
80002048:	6666                	flw	fa2,88(sp)
8000204a:	6666                	flw	fa2,88(sp)
8000204c:	4c66                	lw	s8,88(sp)
8000204e:	0000c093          	xori	ra,ra,0
80002052:	0000                	unimp
80002054:	0000                	unimp
80002056:	0000                	unimp
80002058:	6666                	flw	fa2,88(sp)
8000205a:	6666                	flw	fa2,88(sp)
8000205c:	4c66                	lw	s8,88(sp)
8000205e:	          	not	ra,t6

80002060 <test_5_data>:
80002060:	ffff                	0xffff
80002062:	ffff                	0xffff
80002064:	ffff                	0xffff
80002066:	7fff                	0x7fff
80002068:	6666                	flw	fa2,88(sp)
8000206a:	6666                	flw	fa2,88(sp)
8000206c:	4c66                	lw	s8,88(sp)
8000206e:	0000c093          	xori	ra,ra,0
80002072:	0000                	unimp
80002074:	0000                	unimp
80002076:	0000                	unimp
80002078:	6666                	flw	fa2,88(sp)
8000207a:	6666                	flw	fa2,88(sp)
8000207c:	4c66                	lw	s8,88(sp)
8000207e:	          	xori	ra,gp,-689

80002080 <test_6_data>:
80002080:	d4f1                	beqz	s1,8000204c <test_4_data+0xc>
80002082:	53c8                	lw	a0,36(a5)
80002084:	400921fb          	j16	80294484 <_end+0x292244>
80002088:	8c3a                	mv	s8,a4
8000208a:	e230                	fsw	fa2,64(a2)
8000208c:	798e                	flw	fs3,224(sp)
8000208e:	3e45                	jal	80001c3e <fromhost+0xbfe>
80002090:	0000                	unimp
80002092:	0000                	unimp
80002094:	0000                	unimp
80002096:	0000                	unimp
80002098:	8c3a                	mv	s8,a4
8000209a:	e230                	fsw	fa2,64(a2)
8000209c:	798e                	flw	fs3,224(sp)
8000209e:	3e45                	jal	80001c4e <fromhost+0xc0e>

800020a0 <test_7_data>:
800020a0:	0000                	unimp
800020a2:	0000                	unimp
800020a4:	0000                	unimp
800020a6:	bff0                	sb	a2,31(a5)
800020a8:	0000                	unimp
800020aa:	0000                	unimp
800020ac:	0000                	unimp
800020ae:	c000                	sw	s0,0(s0)
800020b0:	0000                	unimp
800020b2:	0000                	unimp
800020b4:	0000                	unimp
800020b6:	0000                	unimp
800020b8:	0000                	unimp
800020ba:	0000                	unimp
800020bc:	0000                	unimp
800020be:	c000                	sw	s0,0(s0)

800020c0 <test_12_data>:
800020c0:	0000                	unimp
800020c2:	0000                	unimp
800020c4:	0000                	unimp
800020c6:	4004                	lw	s1,0(s0)
800020c8:	0000                	unimp
800020ca:	0000                	unimp
800020cc:	0000                	unimp
800020ce:	3ff0                	lbu	a2,31(a5)
800020d0:	0000                	unimp
800020d2:	0000                	unimp
800020d4:	0000                	unimp
800020d6:	0000                	unimp
800020d8:	0000                	unimp
800020da:	0000                	unimp
800020dc:	0000                	unimp
800020de:	4004                	lw	s1,0(s0)

800020e0 <test_13_data>:
800020e0:	6666                	flw	fa2,88(sp)
800020e2:	6666                	flw	fa2,88(sp)
800020e4:	4c66                	lw	s8,88(sp)
800020e6:	999ac093          	xori	ra,s5,-1639
800020ea:	9999                	andi	a1,a1,-26
800020ec:	9999                	andi	a1,a1,-26
800020ee:	3ff1                	jal	800020ca <test_12_data+0xa>
800020f0:	0000                	unimp
800020f2:	0000                	unimp
800020f4:	0000                	unimp
800020f6:	0000                	unimp
800020f8:	999a                	add	s3,s3,t1
800020fa:	9999                	andi	a1,a1,-26
800020fc:	9999                	andi	a1,a1,-26
800020fe:	3ff1                	jal	800020da <test_12_data+0x1a>

80002100 <test_14_data>:
80002100:	999a                	add	s3,s3,t1
80002102:	9999                	andi	a1,a1,-26
80002104:	9999                	andi	a1,a1,-26
80002106:	3ff1                	jal	800020e2 <test_13_data+0x2>
80002108:	6666                	flw	fa2,88(sp)
8000210a:	6666                	flw	fa2,88(sp)
8000210c:	4c66                	lw	s8,88(sp)
8000210e:	0000c093          	xori	ra,ra,0
80002112:	0000                	unimp
80002114:	0000                	unimp
80002116:	0000                	unimp
80002118:	999a                	add	s3,s3,t1
8000211a:	9999                	andi	a1,a1,-26
8000211c:	9999                	andi	a1,a1,-26
8000211e:	3ff1                	jal	800020fa <test_13_data+0x1a>

80002120 <test_15_data>:
80002120:	ffff                	0xffff
80002122:	ffff                	0xffff
80002124:	ffff                	0xffff
80002126:	7fff                	0x7fff
80002128:	6666                	flw	fa2,88(sp)
8000212a:	6666                	flw	fa2,88(sp)
8000212c:	4c66                	lw	s8,88(sp)
8000212e:	0000c093          	xori	ra,ra,0
80002132:	0000                	unimp
80002134:	0000                	unimp
80002136:	0000                	unimp
80002138:	6666                	flw	fa2,88(sp)
8000213a:	6666                	flw	fa2,88(sp)
8000213c:	4c66                	lw	s8,88(sp)
8000213e:	          	xori	ra,gp,-689

80002140 <test_16_data>:
80002140:	d4f1                	beqz	s1,8000210c <test_14_data+0xc>
80002142:	53c8                	lw	a0,36(a5)
80002144:	400921fb          	j16	80294544 <_end+0x292304>
80002148:	8c3a                	mv	s8,a4
8000214a:	e230                	fsw	fa2,64(a2)
8000214c:	798e                	flw	fs3,224(sp)
8000214e:	3e45                	jal	80001cfe <fromhost+0xcbe>
80002150:	0000                	unimp
80002152:	0000                	unimp
80002154:	0000                	unimp
80002156:	0000                	unimp
80002158:	d4f1                	beqz	s1,80002124 <test_15_data+0x4>
8000215a:	53c8                	lw	a0,36(a5)
8000215c:	400921fb          	j16	8029455c <_end+0x29231c>

80002160 <test_17_data>:
80002160:	0000                	unimp
80002162:	0000                	unimp
80002164:	0000                	unimp
80002166:	bff0                	sb	a2,31(a5)
80002168:	0000                	unimp
8000216a:	0000                	unimp
8000216c:	0000                	unimp
8000216e:	c000                	sw	s0,0(s0)
80002170:	0000                	unimp
80002172:	0000                	unimp
80002174:	0000                	unimp
80002176:	0000                	unimp
80002178:	0000                	unimp
8000217a:	0000                	unimp
8000217c:	0000                	unimp
8000217e:	bff0                	sb	a2,31(a5)

80002180 <test_20_data>:
80002180:	0001                	nop
80002182:	0000                	unimp
80002184:	0000                	unimp
80002186:	7ff0                	flw	fa2,124(a5)
80002188:	0000                	unimp
8000218a:	0000                	unimp
8000218c:	0000                	unimp
8000218e:	3ff0                	lbu	a2,31(a5)
80002190:	0000                	unimp
80002192:	0000                	unimp
80002194:	0000                	unimp
80002196:	0000                	unimp
80002198:	0000                	unimp
8000219a:	0000                	unimp
8000219c:	0000                	unimp
8000219e:	3ff0                	lbu	a2,31(a5)

800021a0 <test_21_data>:
800021a0:	ffff                	0xffff
800021a2:	ffff                	0xffff
800021a4:	ffff                	0xffff
800021a6:	7fff                	0x7fff
800021a8:	ffff                	0xffff
800021aa:	ffff                	0xffff
800021ac:	ffff                	0xffff
800021ae:	7fff                	0x7fff
800021b0:	0000                	unimp
800021b2:	0000                	unimp
800021b4:	0000                	unimp
800021b6:	0000                	unimp
800021b8:	0000                	unimp
800021ba:	0000                	unimp
800021bc:	0000                	unimp
800021be:	7ff8                	flw	fa4,124(a5)

800021c0 <test_30_data>:
800021c0:	0000                	unimp
800021c2:	0000                	unimp
800021c4:	0000                	unimp
800021c6:	8000                	pop	reserved,0
800021c8:	0000                	unimp
800021ca:	0000                	unimp
800021cc:	0000                	unimp
800021ce:	0000                	unimp
800021d0:	0000                	unimp
800021d2:	0000                	unimp
800021d4:	0000                	unimp
800021d6:	0000                	unimp
800021d8:	0000                	unimp
800021da:	0000                	unimp
800021dc:	0000                	unimp
800021de:	8000                	pop	reserved,0

800021e0 <test_31_data>:
800021e0:	0000                	unimp
800021e2:	0000                	unimp
800021e4:	0000                	unimp
800021e6:	0000                	unimp
800021e8:	0000                	unimp
800021ea:	0000                	unimp
800021ec:	0000                	unimp
800021ee:	8000                	pop	reserved,0
800021f0:	0000                	unimp
800021f2:	0000                	unimp
800021f4:	0000                	unimp
800021f6:	0000                	unimp
800021f8:	0000                	unimp
800021fa:	0000                	unimp
800021fc:	0000                	unimp
800021fe:	8000                	pop	reserved,0

80002200 <test_32_data>:
80002200:	0000                	unimp
80002202:	0000                	unimp
80002204:	0000                	unimp
80002206:	8000                	pop	reserved,0
80002208:	0000                	unimp
8000220a:	0000                	unimp
8000220c:	0000                	unimp
8000220e:	0000                	unimp
80002210:	0000                	unimp
80002212:	0000                	unimp
80002214:	0000                	unimp
80002216:	0000                	unimp
80002218:	0000                	unimp
8000221a:	0000                	unimp
8000221c:	0000                	unimp
8000221e:	0000                	unimp

80002220 <test_33_data>:
80002220:	0000                	unimp
80002222:	0000                	unimp
80002224:	0000                	unimp
80002226:	0000                	unimp
80002228:	0000                	unimp
8000222a:	0000                	unimp
8000222c:	0000                	unimp
8000222e:	8000                	pop	reserved,0
80002230:	0000                	unimp
80002232:	0000                	unimp
80002234:	0000                	unimp
80002236:	0000                	unimp
80002238:	0000                	unimp
8000223a:	0000                	unimp
8000223c:	0000                	unimp
8000223e:	0000                	unimp
